; Function Attrs: nounwind uwtable
define hidden void @phpdbg_set_bucket_watchpoint(ptr noundef %0, ptr noundef %1) local_unnamed_addr #0 {
  store ptr %0, ptr %1, align 8
  %3 = getelementptr inbounds i8, ptr %1, i64 8
  store i64 32, ptr %3, align 8
  %4 = getelementptr inbounds i8, ptr %1, i64 24
  store ptr null, ptr %4, align 8
  %5 = getelementptr inbounds i8, ptr %1, i64 88
  store ptr null, ptr %5, align 8
  %6 = getelementptr inbounds i8, ptr %1, i64 32
  tail call void @_zend_hash_init(ptr noundef nonnull %6, i32 noundef 8, ptr noundef null, i1 noundef zeroext false) #17
  %7 = getelementptr inbounds i8, ptr %1, i64 16
  store i32 5, ptr %7, align 8
  ret void
}